; Function Attrs: mustprogress uwtable
define void @_ZN2cv11FileStorage4Impl25make_write_struct_delayedEPKciS3_(ptr noundef nonnull align 8 captures(none) dereferenceable(700) %0, ptr noundef readonly %1, i32 noundef %2, ptr noundef readonly %3) local_unnamed_addr #13 align 2 personality ptr @__gxx_personality_v0 {
  %5 = alloca %"class.std::__cxx11::basic_string", align 8
  %6 = alloca %"class.std::allocator", align 1
  %7 = getelementptr inbounds nuw i8, ptr %0, i64 85
  %8 = load i8, ptr %7, align 1, !tbaa !99, !range !154, !noundef !155
  %9 = icmp eq i8 %8, 0
  br i1 %9, label %20, label %10

10:                                               ; preds = %4
  call void @llvm.lifetime.start.p0(i64 32, ptr nonnull %5) #41
  call void @llvm.lifetime.start.p0(i64 1, ptr nonnull %6) #41
  call void @_ZNSt7__cxx1112basic_stringIcSt11char_traitsIcESaIcEEC2EPKcRKS3_(ptr noundef nonnull align 8 dereferenceable(32) %5, ptr noundef nonnull @.str.81, ptr noundef nonnull align 1 dereferenceable(1) %6)
  invoke void @_ZN2cv5errorEiRKNSt7__cxx1112basic_stringIcSt11char_traitsIcESaIcEEEPKcS9_i(i32 noundef -215, ptr noundef nonnull align 8 dereferenceable(32) %5, ptr noundef nonnull @__func__._ZN2cv11FileStorage4Impl25make_write_struct_delayedEPKciS3_, ptr noundef nonnull @.str.11, i32 noundef 1284) #42
          to label %11 unwind label %12

11:                                               ; preds = %10
  unreachable

12:                                               ; preds = %10
  %13 = landingpad { ptr, i32 }
          cleanup
  %14 = load ptr, ptr %5, align 8, !tbaa !12
  %15 = getelementptr inbounds nuw i8, ptr %5, i64 16
  %16 = icmp eq ptr %14, %15
  br i1 %16, label %_ZNKSt7__cxx1112basic_stringIcSt11char_traitsIcESaIcEE11_M_is_localEv.exit.thread.i.i, label %_ZNKSt7__cxx1112basic_stringIcSt11char_traitsIcESaIcEE11_M_is_localEv.exit.i.i

_ZNKSt7__cxx1112basic_stringIcSt11char_traitsIcESaIcEE11_M_is_localEv.exit.thread.i.i: ; preds = %12
  %17 = getelementptr inbounds nuw i8, ptr %5, i64 8
  %18 = load i64, ptr %17, align 8, !tbaa !18
  %19 = icmp ult i64 %18, 16
  call void @llvm.assume(i1 %19)
  br label %_ZNSt7__cxx1112basic_stringIcSt11char_traitsIcESaIcEED2Ev.exit

_ZNKSt7__cxx1112basic_stringIcSt11char_traitsIcESaIcEE11_M_is_localEv.exit.i.i: ; preds = %12
  call void @_ZdlPv(ptr noundef %14) #43
  br label %_ZNSt7__cxx1112basic_stringIcSt11char_traitsIcESaIcEED2Ev.exit

_ZNSt7__cxx1112basic_stringIcSt11char_traitsIcESaIcEED2Ev.exit: ; preds = %_ZNKSt7__cxx1112basic_stringIcSt11char_traitsIcESaIcEE11_M_is_localEv.exit.i.i, %_ZNKSt7__cxx1112basic_stringIcSt11char_traitsIcESaIcEE11_M_is_localEv.exit.thread.i.i
  call void @llvm.lifetime.end.p0(i64 1, ptr nonnull %6) #41
  call void @llvm.lifetime.end.p0(i64 32, ptr nonnull %5) #41
  resume { ptr, i32 } %13

20:                                               ; preds = %4
  %21 = getelementptr inbounds nuw i8, ptr %0, i64 96
  store i32 %2, ptr %21, align 8, !tbaa !101
  %.not = icmp eq ptr %1, null
  br i1 %.not, label %28, label %22

22:                                               ; preds = %20
  %23 = tail call i64 @strlen(ptr noundef nonnull dereferenceable(1) %1) #40
  %24 = add i64 %23, 1
  %25 = tail call noalias noundef nonnull ptr @_Znam(i64 noundef %24) #44
  %26 = getelementptr inbounds nuw i8, ptr %0, i64 88
  store ptr %25, ptr %26, align 8, !tbaa !100
  %27 = tail call ptr @strcpy(ptr noundef nonnull dereferenceable(1) %25, ptr noundef nonnull dereferenceable(1) %1) #41
  br label %28

28:                                               ; preds = %22, %20
  %.not13 = icmp eq ptr %3, null
  br i1 %.not13, label %35, label %29

29:                                               ; preds = %28
  %30 = tail call i64 @strlen(ptr noundef nonnull dereferenceable(1) %3) #40
  %31 = add i64 %30, 1
  %32 = tail call noalias noundef nonnull ptr @_Znam(i64 noundef %31) #44
  %33 = getelementptr inbounds nuw i8, ptr %0, i64 104
  store ptr %32, ptr %33, align 8, !tbaa !297
  %34 = tail call ptr @strcpy(ptr noundef nonnull dereferenceable(1) %32, ptr noundef nonnull dereferenceable(1) %3) #41
  br label %35

35:                                               ; preds = %29, %28
  store i8 1, ptr %7, align 1, !tbaa !99
  ret void
}